	.section	__TEXT,__text,regular,pure_instructions
	.macosx_version_min 10, 7
	.private_extern	__ZN3std2rt10lang_start17he59f51aa4ecfd2e5E
	.globl	__ZN3std2rt10lang_start17he59f51aa4ecfd2e5E
	.p2align	4, 0x90
__ZN3std2rt10lang_start17he59f51aa4ecfd2e5E:
	.cfi_startproc
	pushq	%rbp
	.cfi_def_cfa_offset 16
	.cfi_offset %rbp, -16
	movq	%rsp, %rbp
	.cfi_def_cfa_register %rbp
	subq	$16, %rsp
	movq	%rdx, %rcx
	movq	%rsi, %rdx
	movq	%rdi, -8(%rbp)
	leaq	l___unnamed_1(%rip), %rsi
	leaq	-8(%rbp), %rdi
	callq	__ZN3std2rt19lang_start_internal17hc1ac2c20e9f8edf2E
	addq	$16, %rsp
	popq	%rbp
	retq
	.cfi_endproc

	.p2align	4, 0x90
__ZN3std2rt10lang_start28_$u7b$$u7b$closure$u7d$$u7d$17h264d35ec8338d256E:
	.cfi_startproc
	pushq	%rbp
	.cfi_def_cfa_offset 16
	.cfi_offset %rbp, -16
	movq	%rsp, %rbp
	.cfi_def_cfa_register %rbp
	callq	*(%rdi)
	xorl	%eax, %eax
	popq	%rbp
	retq
	.cfi_endproc

	.p2align	4, 0x90
__ZN4core3ops8function6FnOnce40call_once$u7b$$u7b$vtable.shim$u7d$$u7d$17h65cff8e1fe018d0aE:
	.cfi_startproc
	pushq	%rbp
	.cfi_def_cfa_offset 16
	.cfi_offset %rbp, -16
	movq	%rsp, %rbp
	.cfi_def_cfa_register %rbp
	callq	*(%rdi)
	xorl	%eax, %eax
	popq	%rbp
	retq
	.cfi_endproc

	.p2align	4, 0x90
__ZN4core3ptr18real_drop_in_place17h926b91f6bed78524E:
	.cfi_startproc
	pushq	%rbp
	.cfi_def_cfa_offset 16
	.cfi_offset %rbp, -16
	movq	%rsp, %rbp
	.cfi_def_cfa_register %rbp
	popq	%rbp
	retq
	.cfi_endproc

	.p2align	4, 0x90
__ZN10square_sum4main17hcf05eb5210c39e34E:
	.cfi_startproc
	pushq	%rbp
	.cfi_def_cfa_offset 16
	.cfi_offset %rbp, -16
	movq	%rsp, %rbp
	.cfi_def_cfa_register %rbp
	subq	$80, %rsp
	movq	$120, -8(%rbp)
	leaq	-8(%rbp), %rax
	movq	%rax, -24(%rbp)
	movq	__ZN4core3fmt3num3imp54_$LT$impl$u20$core..fmt..Display$u20$for$u20$isize$GT$3fmt17h3846262a800512c1E@GOTPCREL(%rip), %rax
	movq	%rax, -16(%rbp)
	leaq	l___unnamed_2(%rip), %rax
	movq	%rax, -72(%rbp)
	movq	$2, -64(%rbp)
	movq	$0, -56(%rbp)
	leaq	-24(%rbp), %rax
	movq	%rax, -40(%rbp)
	movq	$1, -32(%rbp)
	leaq	-72(%rbp), %rdi
	callq	__ZN3std2io5stdio6_print17h8760c403d70231e9E
	addq	$80, %rsp
	popq	%rbp
	retq
	.cfi_endproc

	.globl	_main
	.p2align	4, 0x90
_main:
	.cfi_startproc
	pushq	%rbp
	.cfi_def_cfa_offset 16
	.cfi_offset %rbp, -16
	movq	%rsp, %rbp
	.cfi_def_cfa_register %rbp
	subq	$16, %rsp
	movq	%rsi, %rcx
	movslq	%edi, %rdx
	leaq	__ZN10square_sum4main17hcf05eb5210c39e34E(%rip), %rax
	movq	%rax, -8(%rbp)
	leaq	l___unnamed_1(%rip), %rsi
	leaq	-8(%rbp), %rdi
	callq	__ZN3std2rt19lang_start_internal17hc1ac2c20e9f8edf2E
	addq	$16, %rsp
	popq	%rbp
	retq
	.cfi_endproc

	.section	__DATA,__const
	.p2align	3
l___unnamed_1:
	.quad	__ZN4core3ptr18real_drop_in_place17h926b91f6bed78524E
	.quad	8
	.quad	8
	.quad	__ZN3std2rt10lang_start28_$u7b$$u7b$closure$u7d$$u7d$17h264d35ec8338d256E
	.quad	__ZN3std2rt10lang_start28_$u7b$$u7b$closure$u7d$$u7d$17h264d35ec8338d256E
	.quad	__ZN4core3ops8function6FnOnce40call_once$u7b$$u7b$vtable.shim$u7d$$u7d$17h65cff8e1fe018d0aE

	.section	__TEXT,__const
l___unnamed_3:
	.byte	0

l___unnamed_4:
	.byte	10

	.section	__DATA,__const
	.p2align	3
l___unnamed_2:
	.quad	l___unnamed_3
	.space	8
	.quad	l___unnamed_4
	.asciz	"\001\000\000\000\000\000\000"


.subsections_via_symbols
